; Function Attrs: mustprogress uwtable
define hidden void @_ZN3sls12bv_valuation10round_downERNS_5bvectERKSt8functionIFbRKS1_EE(ptr noundef nonnull readonly align 8 captures(none) dereferenceable(184) %0, ptr noundef nonnull align 8 dereferenceable(20) %1, ptr noundef nonnull align 8 dereferenceable(32) %2) local_unnamed_addr #3 align 2 {
  %4 = getelementptr inbounds nuw i8, ptr %2, i64 16
  %5 = load ptr, ptr %4, align 8, !tbaa !98
  %.not.i.i11 = icmp eq ptr %5, null
  br i1 %.not.i.i11, label %._crit_edge, label %_ZNKSt8functionIFbRKN3sls5bvectEEEclES3_.exit.lr.ph

_ZNKSt8functionIFbRKN3sls5bvectEEEclES3_.exit.lr.ph: ; preds = %3
  %6 = getelementptr inbounds nuw i8, ptr %0, i64 152
  %7 = load i32, ptr %6, align 8, !tbaa !67
  %8 = getelementptr inbounds nuw i8, ptr %2, i64 24
  %9 = getelementptr inbounds nuw i8, ptr %0, i64 72
  br label %_ZNKSt8functionIFbRKN3sls5bvectEEEclES3_.exit

._crit_edge:                                      ; preds = %30, %3
  tail call void @_ZSt25__throw_bad_function_callv() #30
  unreachable

_ZNKSt8functionIFbRKN3sls5bvectEEEclES3_.exit:    ; preds = %_ZNKSt8functionIFbRKN3sls5bvectEEEclES3_.exit.lr.ph, %30
  %.012 = phi i32 [ %7, %_ZNKSt8functionIFbRKN3sls5bvectEEEclES3_.exit.lr.ph ], [ %13, %30 ]
  %10 = load ptr, ptr %8, align 8, !tbaa !95
  %11 = tail call noundef zeroext i1 %10(ptr noundef nonnull align 8 dereferenceable(32) %2, ptr noundef nonnull align 8 dereferenceable(20) %1)
  br i1 %11, label %.critedge, label %12

12:                                               ; preds = %_ZNKSt8functionIFbRKN3sls5bvectEEEclES3_.exit
  %13 = add i32 %.012, -1
  %.not = icmp eq i32 %.012, 0
  br i1 %.not, label %.critedge, label %14

.critedge:                                        ; preds = %_ZNKSt8functionIFbRKN3sls5bvectEEEclES3_.exit, %12
  tail call void @_ZNK3sls12bv_valuation16repair_sign_bitsERNS_5bvectE(ptr noundef nonnull align 8 dereferenceable(184) %0, ptr noundef nonnull align 8 dereferenceable(20) %1)
  ret void

14:                                               ; preds = %12
  %15 = lshr i32 %13, 5
  %16 = load ptr, ptr %9, align 8, !tbaa !14
  %17 = zext nneg i32 %15 to i64
  %18 = getelementptr inbounds nuw i32, ptr %16, i64 %17
  %19 = load i32, ptr %18, align 4, !tbaa !15
  %20 = and i32 %13, 31
  %21 = shl nuw i32 1, %20
  %22 = and i32 %19, %21
  %.not9 = icmp eq i32 %22, 0
  br i1 %.not9, label %23, label %30

23:                                               ; preds = %14
  %24 = load ptr, ptr %1, align 8, !tbaa !14
  %25 = getelementptr inbounds nuw i32, ptr %24, i64 %17
  %26 = load i32, ptr %25, align 4, !tbaa !15
  %27 = and i32 %26, %21
  %.not10 = icmp eq i32 %27, 0
  br i1 %.not10, label %30, label %28

28:                                               ; preds = %23
  %29 = xor i32 %27, %26
  store i32 %29, ptr %25, align 4, !tbaa !15
  br label %30

30:                                               ; preds = %28, %23, %14
  %31 = load ptr, ptr %4, align 8, !tbaa !98
  %.not.i.i = icmp eq ptr %31, null
  br i1 %.not.i.i, label %._crit_edge, label %_ZNKSt8functionIFbRKN3sls5bvectEEEclES3_.exit, !llvm.loop !99
}